; Function Attrs: nounwind uwtable
define dso_local void @strbuf_list_free(ptr noundef %0) local_unnamed_addr #3 {
  %.not = icmp eq ptr %0, null
  br i1 %.not, label %11, label %.preheader

.preheader:                                       ; preds = %1
  %2 = load ptr, ptr %0, align 8, !tbaa !22
  %.not89 = icmp eq ptr %2, null
  br i1 %.not89, label %._crit_edge, label %.lr.ph

.lr.ph:                                           ; preds = %.preheader, %strbuf_release.exit
  %3 = phi ptr [ %10, %strbuf_release.exit ], [ %2, %.preheader ]
  %.010 = phi ptr [ %9, %strbuf_release.exit ], [ %0, %.preheader ]
  %4 = load i64, ptr %3, align 8, !tbaa !15
  %.not.i = icmp eq i64 %4, 0
  br i1 %.not.i, label %strbuf_release.exit, label %5

5:                                                ; preds = %.lr.ph
  %6 = getelementptr inbounds nuw i8, ptr %3, i64 16
  %7 = load ptr, ptr %6, align 8, !tbaa !12
  tail call void @free(ptr noundef %7) #25
  tail call void @llvm.memcpy.p0.p0.i64(ptr noundef nonnull align 8 dereferenceable(24) %3, ptr noundef nonnull align 8 dereferenceable(24) @__const.strbuf_addftime.munged_fmt, i64 24, i1 false)
  %.pre = load ptr, ptr %.010, align 8, !tbaa !22
  br label %strbuf_release.exit

strbuf_release.exit:                              ; preds = %.lr.ph, %5
  %8 = phi ptr [ %3, %.lr.ph ], [ %.pre, %5 ]
  %9 = getelementptr inbounds nuw i8, ptr %.010, i64 8
  tail call void @free(ptr noundef %8) #25
  %10 = load ptr, ptr %9, align 8, !tbaa !22
  %.not8 = icmp eq ptr %10, null
  br i1 %.not8, label %._crit_edge, label %.lr.ph, !llvm.loop !32

._crit_edge:                                      ; preds = %strbuf_release.exit, %.preheader
  tail call void @free(ptr noundef %0) #25
  br label %11

11:                                               ; preds = %1, %._crit_edge
  ret void
}